target datalayout = "e-m:e-p270:32:32-p271:32:32-p272:64:64-i64:64-i128:128-f80:128-n8:16:32:64-S128"
target triple = "x86_64-pc-linux-gnu"

%struct.helper = type { ptr, %struct.ossl_quic_tx_packetiser_args_st, %struct.ossl_qtx_args_st, ptr, ptr, %struct.quic_txfc_st, %struct.quic_rxfc_st, %struct.quic_rxfc_st, %struct.quic_rxfc_st, %struct.quic_rxfc_st, %struct.ossl_statm_st, ptr, ptr, %struct.quic_stream_map_st, i8, i8, ptr, ptr, %struct.ossl_qrx_args_st, ptr, %struct.PACKET, i64, %union.anon.0, [16 x %struct.ossl_quic_ack_range_st] }
%struct.ossl_quic_tx_packetiser_args_st = type { %struct.quic_conn_id_st, %struct.quic_conn_id_st, %union.bio_addr_st, i32, ptr, ptr, ptr, ptr, ptr, ptr, ptr, ptr, ptr, ptr, ptr, ptr, ptr, ptr, ptr, i32, [3 x ptr] }
%struct.quic_conn_id_st = type { i8, [20 x i8] }
%union.bio_addr_st = type { %struct.sockaddr_in6, [84 x i8] }
%struct.sockaddr_in6 = type { i16, i16, i32, %struct.in6_addr, i32 }
%struct.in6_addr = type { %union.anon }
%union.anon = type { [4 x i32] }
%struct.ossl_qtx_args_st = type { ptr, ptr, ptr, i64, ptr, ptr }
%struct.quic_txfc_st = type { ptr, i64, i64, i8 }
%struct.quic_rxfc_st = type { i64, i64, i64, i64, i64, i64, i64, %struct.OSSL_TIME, ptr, ptr, ptr, i8, i8, i8, i8 }
%struct.OSSL_TIME = type { i64 }
%struct.ossl_statm_st = type { %struct.OSSL_TIME, %struct.OSSL_TIME, %struct.OSSL_TIME, %struct.OSSL_TIME, i8 }
%struct.quic_stream_map_st = type { ptr, %struct.quic_stream_list_node_st, %struct.quic_stream_list_node_st, %struct.quic_stream_list_node_st, i64, i64, i64, i64, i64, ptr, ptr, ptr, ptr, ptr, i32 }
%struct.quic_stream_list_node_st = type { ptr, ptr }
%struct.ossl_qrx_args_st = type { ptr, ptr, ptr, i64, i64, [3 x i64], i8 }
%struct.PACKET = type { ptr, i64 }
%union.anon.0 = type { %struct.ossl_quic_frame_new_conn_id_st }
%struct.ossl_quic_frame_new_conn_id_st = type { i64, i64, %struct.quic_conn_id_st, %struct.QUIC_STATELESS_RESET_TOKEN }
%struct.QUIC_STATELESS_RESET_TOKEN = type { [16 x i8] }
%struct.ossl_quic_ack_range_st = type { i64, i64 }
%struct.ossl_quic_frame_stream_st = type { i64, i64, i64, ptr, i8 }

@.str.2 = private unnamed_addr constant [32 x i8] c"../openssl/test/quic_txp_test.c\00", align 1
@.str.132 = private unnamed_addr constant [21 x i8] c"h->frame.stream.data\00", align 1
@.str.135 = private unnamed_addr constant [20 x i8] c"h->frame.stream.len\00", align 1
@.str.136 = private unnamed_addr constant [5 x i8] c"1150\00", align 1
@.str.137 = private unnamed_addr constant [5 x i8] c"1200\00", align 1
@.str.138 = private unnamed_addr constant [11 x i8] c"stream_10a\00", align 1
@stream_10a_off = internal global i64 0, align 8

; Function Attrs: nounwind uwtable
define internal i32 @check_stream_10a(ptr noundef %0) #0 {
  %2 = alloca i32, align 4
  %3 = alloca ptr, align 8
  store ptr %0, ptr %3, align 8, !tbaa !82
  %4 = load ptr, ptr %3, align 8, !tbaa !82
  %5 = getelementptr inbounds nuw %struct.helper, ptr %4, i32 0, i32 22
  %6 = getelementptr inbounds nuw %struct.ossl_quic_frame_stream_st, ptr %5, i32 0, i32 2
  %7 = load i64, ptr %6, align 8, !tbaa !69
  %8 = call i32 @test_uint64_t_ge(ptr noundef @.str.2, i32 noundef 905, ptr noundef @.str.135, ptr noundef @.str.136, i64 noundef %7, i64 noundef 1150)
  %9 = icmp ne i32 %8, 0
  br i1 %9, label %10, label %17

10:                                               ; preds = %1
  %11 = load ptr, ptr %3, align 8, !tbaa !82
  %12 = getelementptr inbounds nuw %struct.helper, ptr %11, i32 0, i32 22
  %13 = getelementptr inbounds nuw %struct.ossl_quic_frame_stream_st, ptr %12, i32 0, i32 2
  %14 = load i64, ptr %13, align 8, !tbaa !69
  %15 = call i32 @test_uint64_t_le(ptr noundef @.str.2, i32 noundef 906, ptr noundef @.str.135, ptr noundef @.str.137, i64 noundef %14, i64 noundef 1200)
  %16 = icmp ne i32 %15, 0
  br i1 %16, label %18, label %17

17:                                               ; preds = %10, %1
  store i32 0, ptr %2, align 4
  br label %44

18:                                               ; preds = %10
  %19 = load ptr, ptr %3, align 8, !tbaa !82
  %20 = getelementptr inbounds nuw %struct.helper, ptr %19, i32 0, i32 22
  %21 = getelementptr inbounds nuw %struct.ossl_quic_frame_stream_st, ptr %20, i32 0, i32 3
  %22 = load ptr, ptr %21, align 8, !tbaa !69
  %23 = load ptr, ptr %3, align 8, !tbaa !82
  %24 = getelementptr inbounds nuw %struct.helper, ptr %23, i32 0, i32 22
  %25 = getelementptr inbounds nuw %struct.ossl_quic_frame_stream_st, ptr %24, i32 0, i32 2
  %26 = load i64, ptr %25, align 8, !tbaa !69
  %27 = load ptr, ptr %3, align 8, !tbaa !82
  %28 = getelementptr inbounds nuw %struct.helper, ptr %27, i32 0, i32 22
  %29 = getelementptr inbounds nuw %struct.ossl_quic_frame_stream_st, ptr %28, i32 0, i32 2
  %30 = load i64, ptr %29, align 8, !tbaa !69
  %31 = call i32 @test_mem_eq(ptr noundef @.str.2, i32 noundef 910, ptr noundef @.str.132, ptr noundef @.str.138, ptr noundef %22, i64 noundef %26, ptr noundef @stream_10a, i64 noundef %30)
  %32 = icmp ne i32 %31, 0
  br i1 %32, label %34, label %33

33:                                               ; preds = %18
  store i32 0, ptr %2, align 4
  br label %44

34:                                               ; preds = %18
  %35 = load ptr, ptr %3, align 8, !tbaa !82
  %36 = getelementptr inbounds nuw %struct.helper, ptr %35, i32 0, i32 22
  %37 = getelementptr inbounds nuw %struct.ossl_quic_frame_stream_st, ptr %36, i32 0, i32 1
  %38 = load i64, ptr %37, align 8, !tbaa !69
  %39 = load ptr, ptr %3, align 8, !tbaa !82
  %40 = getelementptr inbounds nuw %struct.helper, ptr %39, i32 0, i32 22
  %41 = getelementptr inbounds nuw %struct.ossl_quic_frame_stream_st, ptr %40, i32 0, i32 2
  %42 = load i64, ptr %41, align 8, !tbaa !69
  %43 = add i64 %38, %42
  store i64 %43, ptr @stream_10a_off, align 8, !tbaa !11
  store i32 1, ptr %2, align 4
  br label %44

44:                                               ; preds = %34, %33, %17
  %45 = load i32, ptr %2, align 4
  ret i32 %45
}