; Function Attrs: nounwind uwtable
define internal range(i32 0, 2) i32 @check_stream_10a(ptr noundef readonly captures(none) %0) #0 {
  %2 = getelementptr inbounds nuw i8, ptr %0, i64 1144
  %3 = load i64, ptr %2, align 8, !tbaa !64
  %4 = tail call i32 @test_uint64_t_ge(ptr noundef nonnull @.str.2, i32 noundef 905, ptr noundef nonnull @.str.135, ptr noundef nonnull @.str.136, i64 noundef %3, i64 noundef 1150) #8
  %.not = icmp eq i32 %4, 0
  br i1 %.not, label %18, label %5

5:                                                ; preds = %1
  %6 = load i64, ptr %2, align 8, !tbaa !64
  %7 = tail call i32 @test_uint64_t_le(ptr noundef nonnull @.str.2, i32 noundef 906, ptr noundef nonnull @.str.135, ptr noundef nonnull @.str.137, i64 noundef %6, i64 noundef 1200) #8
  %.not7 = icmp eq i32 %7, 0
  br i1 %.not7, label %18, label %8

8:                                                ; preds = %5
  %9 = getelementptr inbounds nuw i8, ptr %0, i64 1152
  %10 = load ptr, ptr %9, align 8, !tbaa !64
  %11 = load i64, ptr %2, align 8, !tbaa !64
  %12 = tail call i32 @test_mem_eq(ptr noundef nonnull @.str.2, i32 noundef 910, ptr noundef nonnull @.str.132, ptr noundef nonnull @.str.138, ptr noundef %10, i64 noundef %11, ptr noundef nonnull @stream_10a, i64 noundef %11) #8
  %.not8 = icmp eq i32 %12, 0
  br i1 %.not8, label %18, label %13

13:                                               ; preds = %8
  %14 = getelementptr inbounds nuw i8, ptr %0, i64 1136
  %15 = load i64, ptr %14, align 8, !tbaa !64
  %16 = load i64, ptr %2, align 8, !tbaa !64
  %17 = add i64 %16, %15
  store i64 %17, ptr @stream_10a_off, align 8, !tbaa !102
  br label %18

18:                                               ; preds = %8, %1, %5, %13
  %.0 = phi i32 [ 1, %13 ], [ 0, %5 ], [ 0, %1 ], [ 0, %8 ]
  ret i32 %.0
}